target datalayout = "e-m:e-p270:32:32-p271:32:32-p272:64:64-i64:64-i128:128-f80:128-n8:16:32:64-S128"
target triple = "x86_64-pc-linux-gnu"

%struct.randpkt_example = type { ptr, ptr, i32, i32, ptr, i32, ptr, i32, ptr, ptr, i32 }

@pkt_rand = hidden global ptr null, align 8

; Function Attrs: null_pointer_is_valid sspstrong uwtable
define hidden zeroext i1 @randpkt_example_close(ptr noundef %0) #1 {
  %2 = alloca ptr, align 8
  %3 = alloca i32, align 4
  %4 = alloca ptr, align 8
  %5 = alloca i8, align 1
  store ptr %0, ptr %2, align 8
  call void @llvm.lifetime.start.p0(i64 4, ptr %3) #13
  call void @llvm.lifetime.start.p0(i64 8, ptr %4) #13
  call void @llvm.lifetime.start.p0(i64 1, ptr %5) #13
  store i8 1, ptr %5, align 1
  %6 = load ptr, ptr %2, align 8
  %7 = getelementptr inbounds nuw %struct.randpkt_example, ptr %6, i32 0, i32 8
  %8 = load ptr, ptr %7, align 8
  %9 = call zeroext i1 @wtap_dump_close(ptr noundef %8, ptr noundef null, ptr noundef %3, ptr noundef %4)
  br i1 %9, label %16, label %10

10:                                               ; preds = %1
  %11 = load ptr, ptr %2, align 8
  %12 = getelementptr inbounds nuw %struct.randpkt_example, ptr %11, i32 0, i32 9
  %13 = load ptr, ptr %12, align 8
  %14 = load i32, ptr %3, align 4
  %15 = load ptr, ptr %4, align 8
  call void @cfile_close_failure_message(ptr noundef %13, i32 noundef %14, ptr noundef %15)
  store i8 0, ptr %5, align 1
  br label %16

16:                                               ; preds = %10, %1
  %17 = load ptr, ptr @pkt_rand, align 8
  %18 = icmp ne ptr %17, null
  br i1 %18, label %19, label %21

19:                                               ; preds = %16
  %20 = load ptr, ptr @pkt_rand, align 8
  call void @g_rand_free(ptr noundef %20)
  store ptr null, ptr @pkt_rand, align 8
  br label %21

21:                                               ; preds = %19, %16
  %22 = load i8, ptr %5, align 1, !range !11, !noundef !12
  %23 = trunc i8 %22 to i1
  call void @llvm.lifetime.end.p0(i64 1, ptr %5) #13
  call void @llvm.lifetime.end.p0(i64 8, ptr %4) #13
  call void @llvm.lifetime.end.p0(i64 4, ptr %3) #13
  ret i1 %23
}