; Function Attrs: null_pointer_is_valid sspstrong uwtable
define hidden noundef zeroext i1 @randpkt_example_close(ptr noundef readonly captures(none) %0) local_unnamed_addr #1 {
  %2 = alloca i32, align 4
  %3 = alloca ptr, align 8
  call void @llvm.lifetime.start.p0(i64 4, ptr nonnull %2) #10
  call void @llvm.lifetime.start.p0(i64 8, ptr nonnull %3) #10
  %4 = getelementptr inbounds nuw i8, ptr %0, i64 56
  %5 = load ptr, ptr %4, align 8
  %6 = call zeroext i1 @wtap_dump_close(ptr noundef %5, ptr noundef null, ptr noundef nonnull %2, ptr noundef nonnull %3)
  br i1 %6, label %12, label %7

7:                                                ; preds = %1
  %8 = getelementptr inbounds nuw i8, ptr %0, i64 64
  %9 = load ptr, ptr %8, align 8
  %10 = load i32, ptr %2, align 4
  %11 = load ptr, ptr %3, align 8
  call void @cfile_close_failure_message(ptr noundef %9, i32 noundef %10, ptr noundef %11)
  br label %12

12:                                               ; preds = %7, %1
  %13 = load ptr, ptr @pkt_rand, align 8
  %.not = icmp eq ptr %13, null
  br i1 %.not, label %15, label %14

14:                                               ; preds = %12
  call void @g_rand_free(ptr noundef nonnull %13)
  store ptr null, ptr @pkt_rand, align 8
  br label %15

15:                                               ; preds = %14, %12
  call void @llvm.lifetime.end.p0(i64 8, ptr nonnull %3) #10
  call void @llvm.lifetime.end.p0(i64 4, ptr nonnull %2) #10
  ret i1 %6
}